; Function Attrs: nounwind uwtable
define internal fastcc i32 @newnode(ptr noundef nonnull captures(none) %0) unnamed_addr #0 {
  %2 = getelementptr inbounds nuw i8, ptr %0, i64 8
  %3 = load ptr, ptr %2, align 8, !tbaa !11
  %4 = load i64, ptr %0, align 8, !tbaa !3
  %5 = add i64 %4, 1
  %mul.ov.i = icmp ugt i64 %5, 461168601842738790
  br i1 %mul.ov.i, label %6, label %9

6:                                                ; preds = %1
  %7 = load ptr, ptr @stderr, align 8, !tbaa !9
  %8 = tail call i32 (ptr, ptr, ...) @fprintf(ptr noundef %7, ptr noundef nonnull @.str, i64 noundef %5, i64 noundef 40) #19
  tail call fastcc void @graphviz_exit() #20
  unreachable

9:                                                ; preds = %1
  %10 = mul i64 %4, 40
  %11 = mul nuw i64 %5, 40
  %12 = icmp eq i64 %5, 0
  br i1 %12, label %13, label %14

13:                                               ; preds = %9
  tail call void @free(ptr noundef %3) #17
  br label %gv_recalloc.exit

14:                                               ; preds = %9
  %15 = tail call ptr @realloc(ptr noundef %3, i64 noundef %11) #23
  %16 = icmp eq ptr %15, null
  br i1 %16, label %17, label %20

17:                                               ; preds = %14
  %18 = load ptr, ptr @stderr, align 8, !tbaa !9
  %19 = tail call i32 (ptr, ptr, ...) @fprintf(ptr noundef %18, ptr noundef nonnull @.str.1, i64 noundef %11) #19
  tail call fastcc void @graphviz_exit() #20
  unreachable

20:                                               ; preds = %14
  %21 = icmp ugt i64 %11, %10
  br i1 %21, label %22, label %gv_recalloc.exit

22:                                               ; preds = %20
  %23 = getelementptr inbounds nuw i8, ptr %15, i64 %10
  tail call void @llvm.memset.p0.i64(ptr noundef nonnull align 1 dereferenceable(40) %23, i8 0, i64 40, i1 false)
  br label %gv_recalloc.exit

gv_recalloc.exit:                                 ; preds = %13, %20, %22
  %.0.i.i = phi ptr [ null, %13 ], [ %15, %22 ], [ %15, %20 ]
  store ptr %.0.i.i, ptr %2, align 8, !tbaa !11
  %24 = load i64, ptr %0, align 8, !tbaa !3
  %25 = add i64 %24, 1
  store i64 %25, ptr %0, align 8, !tbaa !3
  %26 = trunc i64 %24 to i32
  ret i32 %26
}